; Function Attrs: nounwind uwtable
define range(i64 -1, -9223372036854775808) i64 @H5Aopen_by_name_async(ptr noundef %0, ptr noundef %1, i32 noundef %2, i64 noundef %3, ptr noundef %4, ptr noundef %5, i64 noundef %6, i64 noundef %7, i64 noundef %8) local_unnamed_addr #0 {
  %10 = alloca ptr, align 8
  %11 = alloca ptr, align 8
  store ptr null, ptr %10, align 8
  store ptr null, ptr %11, align 8
  %12 = load i8, ptr @H5_libinit_g, align 1
  %13 = trunc i8 %12 to i1
  %14 = load i8, ptr @H5_libterm_g, align 1
  %15 = trunc i8 %14 to i1
  %16 = select i1 %13, i1 true, i1 %15
  br i1 %16, label %24, label %17

17:                                               ; preds = %9
  %18 = tail call i32 @H5_init_library() #4
  %19 = icmp slt i32 %18, 0
  br i1 %19, label %20, label %24

20:                                               ; preds = %17
  %21 = load i64, ptr @H5E_FUNC_g, align 8
  %22 = load i64, ptr @H5E_CANTINIT_g, align 8
  %23 = tail call i32 (ptr, ptr, i32, i64, i64, ptr, ...) @H5E_printf_stack(ptr noundef nonnull @.str, ptr noundef nonnull @__func__.H5Aopen_by_name_async, i32 noundef 691, i64 noundef %21, i64 noundef %22, ptr noundef nonnull @.str.1) #4
  br label %.thread39

24:                                               ; preds = %17, %9
  %25 = tail call i32 @H5CX_push() #4
  %26 = icmp slt i32 %25, 0
  br i1 %26, label %27, label %31

27:                                               ; preds = %24
  %28 = load i64, ptr @H5E_FUNC_g, align 8
  %29 = load i64, ptr @H5E_CANTSET_g, align 8
  %30 = tail call i32 (ptr, ptr, i32, i64, i64, ptr, ...) @H5E_printf_stack(ptr noundef nonnull @.str, ptr noundef nonnull @__func__.H5Aopen_by_name_async, i32 noundef 691, i64 noundef %28, i64 noundef %29, ptr noundef nonnull @.str.2) #4
  br label %.thread39

31:                                               ; preds = %24
  %32 = tail call i32 @H5E_clear_stack() #4
  %.not = icmp eq i64 %8, 0
  %spec.select = select i1 %.not, ptr null, ptr %11
  %33 = call fastcc i64 @H5A__open_by_name_api_common(i64 noundef %3, ptr noundef %4, ptr noundef %5, i64 noundef %6, i64 noundef %7, ptr noundef %spec.select, ptr noundef nonnull %10)
  %34 = icmp slt i64 %33, 0
  br i1 %34, label %35, label %39

35:                                               ; preds = %31
  %36 = load i64, ptr @H5E_ATTR_g, align 8
  %37 = load i64, ptr @H5E_CANTOPENOBJ_g, align 8
  %38 = call i32 (ptr, ptr, i32, i64, i64, ptr, ...) @H5E_printf_stack(ptr noundef nonnull @.str, ptr noundef nonnull @__func__.H5Aopen_by_name_async, i32 noundef 700, i64 noundef %36, i64 noundef %37, ptr noundef nonnull @.str.22) #4
  br label %.thread45

39:                                               ; preds = %31
  %40 = load ptr, ptr %11, align 8
  %.not30 = icmp eq ptr %40, null
  br i1 %.not30, label %59, label %41

41:                                               ; preds = %39
  %42 = load ptr, ptr %10, align 8
  %43 = getelementptr inbounds i8, ptr %42, i64 8
  %44 = load ptr, ptr %43, align 8
  %45 = call i32 (i64, ptr, ptr, ptr, ptr, ...) @H5ES_insert(i64 noundef %8, ptr noundef %44, ptr noundef nonnull %40, ptr noundef nonnull @__func__.H5Aopen_by_name_async, ptr noundef nonnull @.str.24, ptr noundef nonnull @.str.6, ptr noundef %0, ptr noundef nonnull @.str.7, ptr noundef %1, ptr noundef nonnull @.str.8, i32 noundef %2, ptr noundef nonnull @.str.9, i64 noundef %3, ptr noundef nonnull @.str.19, ptr noundef %4, ptr noundef nonnull @.str.10, ptr noundef %5, ptr noundef nonnull @.str.14, i64 noundef %6, ptr noundef nonnull @.str.20, i64 noundef %7, ptr noundef nonnull @.str.15, i64 noundef %8) #4
  %46 = icmp slt i32 %45, 0
  br i1 %46, label %47, label %59

47:                                               ; preds = %41
  %48 = call i32 @H5I_dec_app_ref(i64 noundef %33) #4
  %49 = icmp slt i32 %48, 0
  br i1 %49, label %50, label %54

50:                                               ; preds = %47
  %51 = load i64, ptr @H5E_ATTR_g, align 8
  %52 = load i64, ptr @H5E_CANTDEC_g, align 8
  %53 = call i32 (ptr, ptr, i32, i64, i64, ptr, ...) @H5E_printf_stack(ptr noundef nonnull @.str, ptr noundef nonnull @__func__.H5Aopen_by_name_async, i32 noundef 709, i64 noundef %51, i64 noundef %52, ptr noundef nonnull @.str.16) #4
  br label %54

54:                                               ; preds = %47, %50
  %55 = load i64, ptr @H5E_ATTR_g, align 8
  %56 = load i64, ptr @H5E_CANTINSERT_g, align 8
  %57 = call i32 (ptr, ptr, i32, i64, i64, ptr, ...) @H5E_printf_stack(ptr noundef nonnull @.str, ptr noundef nonnull @__func__.H5Aopen_by_name_async, i32 noundef 710, i64 noundef %55, i64 noundef %56, ptr noundef nonnull @.str.17) #4
  br label %.thread45

.thread45:                                        ; preds = %54, %35
  %58 = call i32 @H5CX_pop(i1 noundef zeroext true) #4
  br label %.thread39

59:                                               ; preds = %39, %41
  %60 = call i32 @H5CX_pop(i1 noundef zeroext true) #4
  br label %62

.thread39:                                        ; preds = %27, %20, %.thread45
  %61 = call i32 @H5E_dump_api_stack() #4
  br label %62

62:                                               ; preds = %59, %.thread39
  %.0263442 = phi i64 [ -1, %.thread39 ], [ %33, %59 ]
  ret i64 %.0263442
}